; ModuleID = '60/1881.c'
source_filename = "60/1881.c"
target datalayout = "e-m:e-p270:32:32-p271:32:32-p272:64:64-i64:64-f80:128-n8:16:32:64-S128"
target triple = "x86_64-pc-linux-gnu"

@.str = private unnamed_addr constant [3 x i8] c"%d\00", align 1
@.str.1 = private unnamed_addr constant [6 x i8] c"empty\00", align 1
@.str.2 = private unnamed_addr constant [4 x i8] c"3 5\00", align 1
@.str.3 = private unnamed_addr constant [7 x i8] c"\0A%d %d\00", align 1

; Function Attrs: noinline nounwind uwtable
define dso_local i32 @main() #0 {
  %1 = alloca i32, align 4
  %2 = alloca i32, align 4
  %3 = alloca i32, align 4
  %4 = alloca i32, align 4
  %5 = alloca i32, align 4
  %6 = alloca i32, align 4
  %7 = alloca i32, align 4
  %8 = alloca [10000 x i32], align 16
  store i32 0, i32* %1, align 4
  store i32 1, i32* %5, align 4
  %9 = call i32 (i8*, ...) @__isoc99_scanf(i8* getelementptr inbounds ([3 x i8], [3 x i8]* @.str, i64 0, i64 0), i32* %2)
  %10 = load i32, i32* %2, align 4
  %11 = icmp slt i32 %10, 5
  br i1 %11, label %12, label %14

12:                                               ; preds = %0
  %13 = call i32 (i8*, ...) @printf(i8* getelementptr inbounds ([6 x i8], [6 x i8]* @.str.1, i64 0, i64 0))
  br label %88

14:                                               ; preds = %0
  %15 = call i32 (i8*, ...) @printf(i8* getelementptr inbounds ([4 x i8], [4 x i8]* @.str.2, i64 0, i64 0))
  store i32 2, i32* %3, align 4
  br label %16

16:                                               ; preds = %52, %14
  %17 = load i32, i32* %3, align 4
  %18 = load i32, i32* %2, align 4
  %19 = icmp sle i32 %17, %18
  br i1 %19, label %20, label %55

20:                                               ; preds = %16
  %21 = load i32, i32* %3, align 4
  %22 = load i32, i32* %5, align 4
  %23 = sext i32 %22 to i64
  %24 = getelementptr inbounds [10000 x i32], [10000 x i32]* %8, i64 0, i64 %23
  store i32 %21, i32* %24, align 4
  %25 = load i32, i32* %3, align 4
  store i32 %25, i32* %4, align 4
  br label %26

26:                                               ; preds = %37, %20
  %27 = load i32, i32* %4, align 4
  %28 = icmp sgt i32 %27, 1
  br i1 %28, label %29, label %40

29:                                               ; preds = %26
  %30 = load i32, i32* %3, align 4
  %31 = load i32, i32* %4, align 4
  %32 = srem i32 %30, %31
  %33 = icmp eq i32 %32, 0
  br i1 %33, label %34, label %36

34:                                               ; preds = %29
  %35 = load i32, i32* %4, align 4
  store i32 %35, i32* %6, align 4
  br label %36

36:                                               ; preds = %34, %29
  br label %37

37:                                               ; preds = %36
  %38 = load i32, i32* %4, align 4
  %39 = add nsw i32 %38, -1
  store i32 %39, i32* %4, align 4
  br label %26

40:                                               ; preds = %26
  %41 = load i32, i32* %6, align 4
  %42 = load i32, i32* %3, align 4
  %43 = icmp eq i32 %41, %42
  br i1 %43, label %44, label %51

44:                                               ; preds = %40
  %45 = load i32, i32* %3, align 4
  %46 = load i32, i32* %5, align 4
  %47 = sext i32 %46 to i64
  %48 = getelementptr inbounds [10000 x i32], [10000 x i32]* %8, i64 0, i64 %47
  store i32 %45, i32* %48, align 4
  %49 = load i32, i32* %5, align 4
  %50 = add nsw i32 %49, 1
  store i32 %50, i32* %5, align 4
  br label %51

51:                                               ; preds = %44, %40
  br label %52

52:                                               ; preds = %51
  %53 = load i32, i32* %3, align 4
  %54 = add nsw i32 %53, 1
  store i32 %54, i32* %3, align 4
  br label %16

55:                                               ; preds = %16
  store i32 3, i32* %7, align 4
  br label %56

56:                                               ; preds = %84, %55
  %57 = load i32, i32* %7, align 4
  %58 = load i32, i32* %5, align 4
  %59 = icmp slt i32 %57, %58
  br i1 %59, label %60, label %87

60:                                               ; preds = %56
  %61 = load i32, i32* %7, align 4
  %62 = add nsw i32 %61, 1
  %63 = sext i32 %62 to i64
  %64 = getelementptr inbounds [10000 x i32], [10000 x i32]* %8, i64 0, i64 %63
  %65 = load i32, i32* %64, align 4
  %66 = load i32, i32* %7, align 4
  %67 = sext i32 %66 to i64
  %68 = getelementptr inbounds [10000 x i32], [10000 x i32]* %8, i64 0, i64 %67
  %69 = load i32, i32* %68, align 4
  %70 = sub nsw i32 %65, %69
  %71 = icmp eq i32 %70, 2
  br i1 %71, label %72, label %83

72:                                               ; preds = %60
  %73 = load i32, i32* %7, align 4
  %74 = sext i32 %73 to i64
  %75 = getelementptr inbounds [10000 x i32], [10000 x i32]* %8, i64 0, i64 %74
  %76 = load i32, i32* %75, align 4
  %77 = load i32, i32* %7, align 4
  %78 = add nsw i32 %77, 1
  %79 = sext i32 %78 to i64
  %80 = getelementptr inbounds [10000 x i32], [10000 x i32]* %8, i64 0, i64 %79
  %81 = load i32, i32* %80, align 4
  %82 = call i32 (i8*, ...) @printf(i8* getelementptr inbounds ([7 x i8], [7 x i8]* @.str.3, i64 0, i64 0), i32 %76, i32 %81)
  br label %83

83:                                               ; preds = %72, %60
  br label %84

84:                                               ; preds = %83
  %85 = load i32, i32* %7, align 4
  %86 = add nsw i32 %85, 1
  store i32 %86, i32* %7, align 4
  br label %56

87:                                               ; preds = %56
  br label %88

88:                                               ; preds = %87, %12
  %89 = load i32, i32* %1, align 4
  ret i32 %89
}

declare dso_local i32 @__isoc99_scanf(i8*, ...) #1

declare dso_local i32 @printf(i8*, ...) #1


!llvm.module.flags = !{!0}
!llvm.ident = !{!1}

!0 = !{i32 1, !"wchar_size", i32 4}
!1 = !{!"clang version 10.0.0-4ubuntu1 "}
